target datalayout = "e-m:e-p270:32:32-p271:32:32-p272:64:64-i64:64-i128:128-f80:128-n8:16:32:64-S128"
target triple = "x86_64-pc-linux-gnu"

%"class.std::__cxx11::basic_string" = type { %"struct.std::__cxx11::basic_string<char>::_Alloc_hider", i64, %union.anon }
%"struct.std::__cxx11::basic_string<char>::_Alloc_hider" = type { ptr }
%union.anon = type { i64, [8 x i8] }
%"class.boost::unit_test::framework::state" = type { ptr, %"class.std::vector", i64, %"class.std::map", i64, i64, i8, %"class.std::set", %"class.std::vector.14", i32, %"class.std::set.19", %"class.boost::execution_monitor", %"class.std::map.25", %"class.boost::unit_test::runtime_config::stream_holder" }
%"class.std::vector" = type { %"struct.std::_Vector_base" }
%"struct.std::_Vector_base" = type { %"struct.std::_Vector_base<boost::unit_test::test_suite *, std::allocator<boost::unit_test::test_suite *>>::_Vector_impl" }
%"struct.std::_Vector_base<boost::unit_test::test_suite *, std::allocator<boost::unit_test::test_suite *>>::_Vector_impl" = type { %"struct.std::_Vector_base<boost::unit_test::test_suite *, std::allocator<boost::unit_test::test_suite *>>::_Vector_impl_data" }
%"struct.std::_Vector_base<boost::unit_test::test_suite *, std::allocator<boost::unit_test::test_suite *>>::_Vector_impl_data" = type { ptr, ptr, ptr }
%"class.std::map" = type { %"class.std::_Rb_tree" }
%"class.std::_Rb_tree" = type { %"struct.std::_Rb_tree<unsigned long, std::pair<const unsigned long, boost::unit_test::test_unit *>, std::_Select1st<std::pair<const unsigned long, boost::unit_test::test_unit *>>, std::less<unsigned long>>::_Rb_tree_impl" }
%"struct.std::_Rb_tree<unsigned long, std::pair<const unsigned long, boost::unit_test::test_unit *>, std::_Select1st<std::pair<const unsigned long, boost::unit_test::test_unit *>>, std::less<unsigned long>>::_Rb_tree_impl" = type { [8 x i8], %"struct.std::_Rb_tree_header" }
%"struct.std::_Rb_tree_header" = type { %"struct.std::_Rb_tree_node_base", i64 }
%"struct.std::_Rb_tree_node_base" = type { i32, ptr, ptr, ptr }
%"class.std::set" = type { %"class.std::_Rb_tree.9" }
%"class.std::_Rb_tree.9" = type { %"struct.std::_Rb_tree<boost::unit_test::test_observer *, boost::unit_test::test_observer *, std::_Identity<boost::unit_test::test_observer *>, boost::unit_test::framework::state::priority_order>::_Rb_tree_impl" }
%"struct.std::_Rb_tree<boost::unit_test::test_observer *, boost::unit_test::test_observer *, std::_Identity<boost::unit_test::test_observer *>, boost::unit_test::framework::state::priority_order>::_Rb_tree_impl" = type { [8 x i8], %"struct.std::_Rb_tree_header" }
%"class.std::vector.14" = type { %"struct.std::_Vector_base.15" }
%"struct.std::_Vector_base.15" = type { %"struct.std::_Vector_base<boost::unit_test::framework::state::context_frame, std::allocator<boost::unit_test::framework::state::context_frame>>::_Vector_impl" }
%"struct.std::_Vector_base<boost::unit_test::framework::state::context_frame, std::allocator<boost::unit_test::framework::state::context_frame>>::_Vector_impl" = type { %"struct.std::_Vector_base<boost::unit_test::framework::state::context_frame, std::allocator<boost::unit_test::framework::state::context_frame>>::_Vector_impl_data" }
%"struct.std::_Vector_base<boost::unit_test::framework::state::context_frame, std::allocator<boost::unit_test::framework::state::context_frame>>::_Vector_impl_data" = type { ptr, ptr, ptr }
%"class.std::set.19" = type { %"class.std::_Rb_tree.20" }
%"class.std::_Rb_tree.20" = type { %"struct.std::_Rb_tree<boost::unit_test::global_fixture *, boost::unit_test::global_fixture *, std::_Identity<boost::unit_test::global_fixture *>, std::less<boost::unit_test::global_fixture *>>::_Rb_tree_impl" }
%"struct.std::_Rb_tree<boost::unit_test::global_fixture *, boost::unit_test::global_fixture *, std::_Identity<boost::unit_test::global_fixture *>, std::less<boost::unit_test::global_fixture *>>::_Rb_tree_impl" = type { [8 x i8], %"struct.std::_Rb_tree_header" }
%"class.boost::execution_monitor" = type { %"class.boost::unit_test::readwrite_property", %"class.boost::unit_test::readwrite_property", %"class.boost::unit_test::readwrite_property.0", %"class.boost::unit_test::readwrite_property", %"class.boost::unit_test::readwrite_property.2", %"class.boost::shared_ptr", %"class.boost::scoped_array" }
%"class.boost::unit_test::readwrite_property.0" = type { %"class.boost::unit_test::class_property.1" }
%"class.boost::unit_test::class_property.1" = type { i64 }
%"class.boost::unit_test::readwrite_property" = type { %"class.boost::unit_test::class_property" }
%"class.boost::unit_test::class_property" = type { i8 }
%"class.boost::unit_test::readwrite_property.2" = type { %"class.boost::unit_test::class_property.3" }
%"class.boost::unit_test::class_property.3" = type { i32 }
%"class.boost::shared_ptr" = type { ptr, %"class.boost::detail::shared_count" }
%"class.boost::detail::shared_count" = type { ptr }
%"class.boost::scoped_array" = type { ptr }
%"class.std::map.25" = type { %"class.std::_Rb_tree.26" }
%"class.std::_Rb_tree.26" = type { %"struct.std::_Rb_tree<boost::unit_test::output_format, std::pair<const boost::unit_test::output_format, boost::unit_test::runtime_config::stream_holder>, std::_Select1st<std::pair<const boost::unit_test::output_format, boost::unit_test::runtime_config::stream_holder>>, std::less<boost::unit_test::output_format>>::_Rb_tree_impl" }
%"struct.std::_Rb_tree<boost::unit_test::output_format, std::pair<const boost::unit_test::output_format, boost::unit_test::runtime_config::stream_holder>, std::_Select1st<std::pair<const boost::unit_test::output_format, boost::unit_test::runtime_config::stream_holder>>, std::less<boost::unit_test::output_format>>::_Rb_tree_impl" = type { [8 x i8], %"struct.std::_Rb_tree_header" }
%"class.boost::unit_test::runtime_config::stream_holder" = type { %"class.boost::shared_ptr.31", ptr }
%"class.boost::shared_ptr.31" = type { ptr, %"class.boost::detail::shared_count" }
%"class.boost::unit_test::basic_cstring" = type { ptr, ptr }
%"struct.boost::unit_test::framework::state::context_frame" = type <{ %"class.std::__cxx11::basic_string", i32, i8, [3 x i8] }>
%"struct.boost::unit_test::framework::context_generator" = type { i32 }

@__dso_handle = external hidden global i8
@_ZZN5boost9unit_test9framework4impl12_GLOBAL__N_111s_frk_stateEvE8the_inst = internal global %"class.boost::unit_test::framework::state" zeroinitializer, align 8
@_ZGVZN5boost9unit_test9framework4impl12_GLOBAL__N_111s_frk_stateEvE8the_inst = internal global i64 0, align 8
@_ZN5boost9unit_test13basic_cstringIKcE4nullE = linkonce_odr constant i8 0, comdat, align 1

; Function Attrs: mustprogress nounwind uwtable
define available_externally noundef ptr @_ZNKSt7__cxx1112basic_stringIcSt11char_traitsIcESaIcEE7_M_dataEv(ptr noundef nonnull align 8 dereferenceable(32) %0) #4 align 2 {
  %2 = alloca ptr, align 8
  store ptr %0, ptr %2, align 8, !tbaa !3
  %3 = load ptr, ptr %2, align 8
  %4 = getelementptr inbounds nuw %"class.std::__cxx11::basic_string", ptr %3, i32 0, i32 0
  %5 = getelementptr inbounds nuw %"struct.std::__cxx11::basic_string<char>::_Alloc_hider", ptr %4, i32 0, i32 0
  %6 = load ptr, ptr %5, align 8, !tbaa !381
  ret ptr %6
}

; Function Attrs: inlinehint mustprogress nounwind uwtable
define linkonce_odr hidden noundef ptr @_ZN5boost9unit_test13basic_cstringIKcE8null_strEv() #9 comdat align 2 {
  ret ptr @_ZN5boost9unit_test13basic_cstringIKcE4nullE
}

; Function Attrs: mustprogress nounwind uwtable
define available_externally noundef i64 @_ZNKSt7__cxx1112basic_stringIcSt11char_traitsIcESaIcEE4sizeEv(ptr noundef nonnull align 8 dereferenceable(32) %0) #4 align 2 {
  %2 = alloca ptr, align 8
  store ptr %0, ptr %2, align 8, !tbaa !3
  %3 = load ptr, ptr %2, align 8
  %4 = getelementptr inbounds nuw %"class.std::__cxx11::basic_string", ptr %3, i32 0, i32 1
  %5 = load i64, ptr %4, align 8, !tbaa !57
  ret i64 %5
}

; Function Attrs: mustprogress nounwind uwtable
define available_externally noundef ptr @_ZNKSt7__cxx1112basic_stringIcSt11char_traitsIcESaIcEE5c_strEv(ptr noundef nonnull align 8 dereferenceable(32) %0) #4 align 2 {
  %2 = alloca ptr, align 8
  store ptr %0, ptr %2, align 8, !tbaa !3
  %3 = load ptr, ptr %2, align 8
  %4 = call noundef ptr @_ZNKSt7__cxx1112basic_stringIcSt11char_traitsIcESaIcEE7_M_dataEv(ptr noundef nonnull align 8 dereferenceable(32) %3)
  ret ptr %4
}

; Function Attrs: inlinehint mustprogress nounwind uwtable
define linkonce_odr hidden void @_ZN5boost9unit_test13basic_cstringIKcEC2Ev(ptr noundef nonnull align 8 dereferenceable(16) %0) unnamed_addr #9 comdat align 2 {
  %2 = alloca ptr, align 8
  store ptr %0, ptr %2, align 8, !tbaa !3
  %3 = load ptr, ptr %2, align 8
  %4 = getelementptr inbounds nuw %"class.boost::unit_test::basic_cstring", ptr %3, i32 0, i32 0
  %5 = call noundef ptr @_ZN5boost9unit_test13basic_cstringIKcE8null_strEv()
  store ptr %5, ptr %4, align 8, !tbaa !26
  %6 = getelementptr inbounds nuw %"class.boost::unit_test::basic_cstring", ptr %3, i32 0, i32 1
  %7 = getelementptr inbounds nuw %"class.boost::unit_test::basic_cstring", ptr %3, i32 0, i32 0
  %8 = load ptr, ptr %7, align 8, !tbaa !26
  store ptr %8, ptr %6, align 8, !tbaa !28
  ret void
}

; Function Attrs: inlinehint mustprogress nounwind uwtable
define linkonce_odr hidden void @_ZN5boost9unit_test13basic_cstringIKcEC2ERKNSt7__cxx1112basic_stringIcSt11char_traitsIcESaIcEEE(ptr noundef nonnull align 8 dereferenceable(16) %0, ptr noundef nonnull align 8 dereferenceable(32) %1) unnamed_addr #9 comdat align 2 {
  %3 = alloca ptr, align 8
  %4 = alloca ptr, align 8
  store ptr %0, ptr %3, align 8, !tbaa !3
  store ptr %1, ptr %4, align 8, !tbaa !3
  %5 = load ptr, ptr %3, align 8
  %6 = getelementptr inbounds nuw %"class.boost::unit_test::basic_cstring", ptr %5, i32 0, i32 0
  %7 = load ptr, ptr %4, align 8, !tbaa !3
  %8 = call noundef ptr @_ZNKSt7__cxx1112basic_stringIcSt11char_traitsIcESaIcEE5c_strEv(ptr noundef nonnull align 8 dereferenceable(32) %7) #3
  store ptr %8, ptr %6, align 8, !tbaa !26
  %9 = getelementptr inbounds nuw %"class.boost::unit_test::basic_cstring", ptr %5, i32 0, i32 1
  %10 = getelementptr inbounds nuw %"class.boost::unit_test::basic_cstring", ptr %5, i32 0, i32 0
  %11 = load ptr, ptr %10, align 8, !tbaa !26
  %12 = load ptr, ptr %4, align 8, !tbaa !3
  %13 = call noundef i64 @_ZNKSt7__cxx1112basic_stringIcSt11char_traitsIcESaIcEE4sizeEv(ptr noundef nonnull align 8 dereferenceable(32) %12) #3
  %14 = getelementptr inbounds nuw i8, ptr %11, i64 %13
  store ptr %14, ptr %9, align 8, !tbaa !28
  ret void
}

; Function Attrs: mustprogress nounwind uwtable
define linkonce_odr hidden noundef nonnull align 8 dereferenceable(37) ptr @_ZNSt6vectorIN5boost9unit_test9framework5state13context_frameESaIS4_EEixEm(ptr noundef nonnull align 8 dereferenceable(24) %0, i64 noundef %1) #4 comdat align 2 {
  %3 = alloca ptr, align 8
  %4 = alloca i64, align 8
  store ptr %0, ptr %3, align 8, !tbaa !3
  store i64 %1, ptr %4, align 8, !tbaa !12
  %5 = load ptr, ptr %3, align 8
  %6 = getelementptr inbounds nuw %"struct.std::_Vector_base.15", ptr %5, i32 0, i32 0
  %7 = getelementptr inbounds nuw %"struct.std::_Vector_base<boost::unit_test::framework::state::context_frame, std::allocator<boost::unit_test::framework::state::context_frame>>::_Vector_impl_data", ptr %6, i32 0, i32 0
  %8 = load ptr, ptr %7, align 8, !tbaa !193
  %9 = load i64, ptr %4, align 8, !tbaa !12
  %10 = getelementptr inbounds nuw %"struct.boost::unit_test::framework::state::context_frame", ptr %8, i64 %9
  ret ptr %10
}

; Function Attrs: mustprogress nounwind uwtable
define linkonce_odr hidden noundef i64 @_ZNKSt6vectorIN5boost9unit_test9framework5state13context_frameESaIS4_EE4sizeEv(ptr noundef nonnull align 8 dereferenceable(24) %0) #4 comdat align 2 {
  %2 = alloca ptr, align 8
  store ptr %0, ptr %2, align 8, !tbaa !3
  %3 = load ptr, ptr %2, align 8
  %4 = getelementptr inbounds nuw %"struct.std::_Vector_base.15", ptr %3, i32 0, i32 0
  %5 = getelementptr inbounds nuw %"struct.std::_Vector_base<boost::unit_test::framework::state::context_frame, std::allocator<boost::unit_test::framework::state::context_frame>>::_Vector_impl_data", ptr %4, i32 0, i32 1
  %6 = load ptr, ptr %5, align 8, !tbaa !192
  %7 = getelementptr inbounds nuw %"struct.std::_Vector_base.15", ptr %3, i32 0, i32 0
  %8 = getelementptr inbounds nuw %"struct.std::_Vector_base<boost::unit_test::framework::state::context_frame, std::allocator<boost::unit_test::framework::state::context_frame>>::_Vector_impl_data", ptr %7, i32 0, i32 0
  %9 = load ptr, ptr %8, align 8, !tbaa !193
  %10 = ptrtoint ptr %6 to i64
  %11 = ptrtoint ptr %9 to i64
  %12 = sub i64 %10, %11
  %13 = sdiv exact i64 %12, 40
  ret i64 %13
}

; Function Attrs: mustprogress uwtable
define internal noundef nonnull align 8 dereferenceable(360) ptr @_ZN5boost9unit_test9framework4impl12_GLOBAL__N_111s_frk_stateEv() #5 personality ptr @__gxx_personality_v0 {
  %1 = alloca ptr, align 8
  %2 = alloca i32, align 4
  %3 = load atomic i8, ptr @_ZGVZN5boost9unit_test9framework4impl12_GLOBAL__N_111s_frk_stateEvE8the_inst acquire, align 8
  %4 = icmp eq i8 %3, 0
  br i1 %4, label %5, label %11, !prof !14

5:                                                ; preds = %0
  %6 = call i32 @__cxa_guard_acquire(ptr @_ZGVZN5boost9unit_test9framework4impl12_GLOBAL__N_111s_frk_stateEvE8the_inst) #3
  %7 = icmp ne i32 %6, 0
  br i1 %7, label %8, label %11

8:                                                ; preds = %5
  invoke void @_ZN5boost9unit_test9framework5stateC2Ev(ptr noundef nonnull align 8 dereferenceable(360) @_ZZN5boost9unit_test9framework4impl12_GLOBAL__N_111s_frk_stateEvE8the_inst)
          to label %9 unwind label %12

9:                                                ; preds = %8
  %10 = call i32 @__cxa_atexit(ptr @_ZN5boost9unit_test9framework5stateD2Ev, ptr @_ZZN5boost9unit_test9framework4impl12_GLOBAL__N_111s_frk_stateEvE8the_inst, ptr @__dso_handle) #3
  call void @__cxa_guard_release(ptr @_ZGVZN5boost9unit_test9framework4impl12_GLOBAL__N_111s_frk_stateEvE8the_inst) #3
  br label %11

11:                                               ; preds = %9, %5, %0
  ret ptr @_ZZN5boost9unit_test9framework4impl12_GLOBAL__N_111s_frk_stateEvE8the_inst

12:                                               ; preds = %8
  %13 = landingpad { ptr, i32 }
          cleanup
  %14 = extractvalue { ptr, i32 } %13, 0
  store ptr %14, ptr %1, align 8
  %15 = extractvalue { ptr, i32 } %13, 1
  store i32 %15, ptr %2, align 4
  call void @__cxa_guard_abort(ptr @_ZGVZN5boost9unit_test9framework4impl12_GLOBAL__N_111s_frk_stateEvE8the_inst) #3
  br label %16

16:                                               ; preds = %12
  %17 = load ptr, ptr %1, align 8
  %18 = load i32, ptr %2, align 4
  %19 = insertvalue { ptr, i32 } poison, ptr %17, 0
  %20 = insertvalue { ptr, i32 } %19, i32 %18, 1
  resume { ptr, i32 } %20
}

; Function Attrs: mustprogress uwtable
define void @_ZNK5boost9unit_test9framework17context_generator4nextEv(ptr dead_on_unwind noalias writable sret(%"class.boost::unit_test::basic_cstring") align 8 %0, ptr noundef nonnull align 4 dereferenceable(4) %1) #5 align 2 {
  %3 = alloca ptr, align 8
  %4 = alloca ptr, align 8
  store ptr %0, ptr %3, align 8
  store ptr %1, ptr %4, align 8, !tbaa !3
  %5 = load ptr, ptr %4, align 8
  %6 = getelementptr inbounds nuw %"struct.boost::unit_test::framework::context_generator", ptr %5, i32 0, i32 0
  %7 = load i32, ptr %6, align 4, !tbaa !200
  %8 = zext i32 %7 to i64
  %9 = call noundef nonnull align 8 dereferenceable(360) ptr @_ZN5boost9unit_test9framework4impl12_GLOBAL__N_111s_frk_stateEv()
  %10 = getelementptr inbounds nuw %"class.boost::unit_test::framework::state", ptr %9, i32 0, i32 8
  %11 = call noundef i64 @_ZNKSt6vectorIN5boost9unit_test9framework5state13context_frameESaIS4_EE4sizeEv(ptr noundef nonnull align 8 dereferenceable(24) %10) #3
  %12 = icmp ult i64 %8, %11
  br i1 %12, label %13, label %22

13:                                               ; preds = %2
  %14 = call noundef nonnull align 8 dereferenceable(360) ptr @_ZN5boost9unit_test9framework4impl12_GLOBAL__N_111s_frk_stateEv()
  %15 = getelementptr inbounds nuw %"class.boost::unit_test::framework::state", ptr %14, i32 0, i32 8
  %16 = getelementptr inbounds nuw %"struct.boost::unit_test::framework::context_generator", ptr %5, i32 0, i32 0
  %17 = load i32, ptr %16, align 4, !tbaa !200
  %18 = add i32 %17, 1
  store i32 %18, ptr %16, align 4, !tbaa !200
  %19 = zext i32 %17 to i64
  %20 = call noundef nonnull align 8 dereferenceable(37) ptr @_ZNSt6vectorIN5boost9unit_test9framework5state13context_frameESaIS4_EEixEm(ptr noundef nonnull align 8 dereferenceable(24) %15, i64 noundef %19) #3
  %21 = getelementptr inbounds nuw %"struct.boost::unit_test::framework::state::context_frame", ptr %20, i32 0, i32 0
  call void @_ZN5boost9unit_test13basic_cstringIKcEC2ERKNSt7__cxx1112basic_stringIcSt11char_traitsIcESaIcEEE(ptr noundef nonnull align 8 dereferenceable(16) %0, ptr noundef nonnull align 8 dereferenceable(32) %21)
  br label %23

22:                                               ; preds = %2
  call void @_ZN5boost9unit_test13basic_cstringIKcEC2Ev(ptr noundef nonnull align 8 dereferenceable(16) %0)
  br label %23

23:                                               ; preds = %22, %13
  ret void
}