; Function Attrs: mustprogress uwtable
define void @_ZNK5boost9unit_test9framework17context_generator4nextEv(ptr dead_on_unwind noalias nocapture writable writeonly sret(%"class.boost::unit_test::basic_cstring") align 8 %0, ptr nocapture noundef nonnull align 4 dereferenceable(4) %1) local_unnamed_addr #3 align 2 personality ptr @__gxx_personality_v0 {
  %3 = load i32, ptr %1, align 4, !tbaa !326
  %4 = zext i32 %3 to i64
  %5 = load atomic i8, ptr @_ZGVZN5boost9unit_test9framework4impl12_GLOBAL__N_111s_frk_stateEvE8the_inst acquire, align 8
  %6 = icmp eq i8 %5, 0
  br i1 %6, label %7, label %_ZN5boost9unit_test9framework4impl12_GLOBAL__N_111s_frk_stateEv.exit, !prof !3

7:                                                ; preds = %2
  %8 = tail call i32 @__cxa_guard_acquire(ptr nonnull @_ZGVZN5boost9unit_test9framework4impl12_GLOBAL__N_111s_frk_stateEvE8the_inst) #26
  %.not.i = icmp eq i32 %8, 0
  br i1 %.not.i, label %_ZN5boost9unit_test9framework4impl12_GLOBAL__N_111s_frk_stateEv.exit, label %9

9:                                                ; preds = %7
  invoke void @_ZN5boost9unit_test9framework5stateC2Ev(ptr noundef nonnull align 8 dereferenceable(360) @_ZZN5boost9unit_test9framework4impl12_GLOBAL__N_111s_frk_stateEvE8the_inst)
          to label %10 unwind label %12

10:                                               ; preds = %9
  %11 = tail call i32 @__cxa_atexit(ptr nonnull @_ZN5boost9unit_test9framework5stateD2Ev, ptr nonnull @_ZZN5boost9unit_test9framework4impl12_GLOBAL__N_111s_frk_stateEvE8the_inst, ptr nonnull @__dso_handle) #26
  tail call void @__cxa_guard_release(ptr nonnull @_ZGVZN5boost9unit_test9framework4impl12_GLOBAL__N_111s_frk_stateEvE8the_inst) #26
  br label %_ZN5boost9unit_test9framework4impl12_GLOBAL__N_111s_frk_stateEv.exit

common.resume:                                    ; preds = %29, %12
  %common.resume.op = phi { ptr, i32 } [ %13, %12 ], [ %30, %29 ]
  tail call void @__cxa_guard_abort(ptr nonnull @_ZGVZN5boost9unit_test9framework4impl12_GLOBAL__N_111s_frk_stateEvE8the_inst) #26
  resume { ptr, i32 } %common.resume.op

12:                                               ; preds = %9
  %13 = landingpad { ptr, i32 }
          cleanup
  br label %common.resume

_ZN5boost9unit_test9framework4impl12_GLOBAL__N_111s_frk_stateEv.exit: ; preds = %2, %7, %10
  %14 = load ptr, ptr getelementptr inbounds nuw (i8, ptr @_ZZN5boost9unit_test9framework4impl12_GLOBAL__N_111s_frk_stateEvE8the_inst, i64 168), align 8, !tbaa !320
  %15 = load ptr, ptr getelementptr inbounds nuw (i8, ptr @_ZZN5boost9unit_test9framework4impl12_GLOBAL__N_111s_frk_stateEvE8the_inst, i64 160), align 8, !tbaa !323
  %16 = ptrtoint ptr %14 to i64
  %17 = ptrtoint ptr %15 to i64
  %18 = sub i64 %16, %17
  %19 = sdiv exact i64 %18, 40
  %20 = icmp ugt i64 %19, %4
  br i1 %20, label %21, label %41

21:                                               ; preds = %_ZN5boost9unit_test9framework4impl12_GLOBAL__N_111s_frk_stateEv.exit
  %22 = load atomic i8, ptr @_ZGVZN5boost9unit_test9framework4impl12_GLOBAL__N_111s_frk_stateEvE8the_inst acquire, align 8
  %23 = icmp eq i8 %22, 0
  br i1 %23, label %24, label %_ZN5boost9unit_test9framework4impl12_GLOBAL__N_111s_frk_stateEv.exit2, !prof !3

24:                                               ; preds = %21
  %25 = tail call i32 @__cxa_guard_acquire(ptr nonnull @_ZGVZN5boost9unit_test9framework4impl12_GLOBAL__N_111s_frk_stateEvE8the_inst) #26
  %.not.i1 = icmp eq i32 %25, 0
  br i1 %.not.i1, label %_ZN5boost9unit_test9framework4impl12_GLOBAL__N_111s_frk_stateEv.exit2, label %26

26:                                               ; preds = %24
  invoke void @_ZN5boost9unit_test9framework5stateC2Ev(ptr noundef nonnull align 8 dereferenceable(360) @_ZZN5boost9unit_test9framework4impl12_GLOBAL__N_111s_frk_stateEvE8the_inst)
          to label %27 unwind label %29

27:                                               ; preds = %26
  %28 = tail call i32 @__cxa_atexit(ptr nonnull @_ZN5boost9unit_test9framework5stateD2Ev, ptr nonnull @_ZZN5boost9unit_test9framework4impl12_GLOBAL__N_111s_frk_stateEvE8the_inst, ptr nonnull @__dso_handle) #26
  tail call void @__cxa_guard_release(ptr nonnull @_ZGVZN5boost9unit_test9framework4impl12_GLOBAL__N_111s_frk_stateEvE8the_inst) #26
  br label %_ZN5boost9unit_test9framework4impl12_GLOBAL__N_111s_frk_stateEv.exit2

29:                                               ; preds = %26
  %30 = landingpad { ptr, i32 }
          cleanup
  br label %common.resume

_ZN5boost9unit_test9framework4impl12_GLOBAL__N_111s_frk_stateEv.exit2: ; preds = %21, %24, %27
  %31 = load i32, ptr %1, align 4, !tbaa !326
  %32 = add i32 %31, 1
  store i32 %32, ptr %1, align 4, !tbaa !326
  %33 = zext i32 %31 to i64
  %34 = load ptr, ptr getelementptr inbounds nuw (i8, ptr @_ZZN5boost9unit_test9framework4impl12_GLOBAL__N_111s_frk_stateEvE8the_inst, i64 160), align 8, !tbaa !323
  %35 = getelementptr inbounds nuw %"struct.boost::unit_test::framework::state::context_frame", ptr %34, i64 %33
  %36 = load ptr, ptr %35, align 8, !tbaa !8
  store ptr %36, ptr %0, align 8, !tbaa !13
  %37 = getelementptr inbounds nuw i8, ptr %0, i64 8
  %38 = getelementptr inbounds nuw i8, ptr %35, i64 8
  %39 = load i64, ptr %38, align 8, !tbaa !12
  %40 = getelementptr inbounds nuw i8, ptr %36, i64 %39
  store ptr %40, ptr %37, align 8, !tbaa !15
  br label %43

41:                                               ; preds = %_ZN5boost9unit_test9framework4impl12_GLOBAL__N_111s_frk_stateEv.exit
  store ptr @_ZN5boost9unit_test13basic_cstringIKcE4nullE, ptr %0, align 8, !tbaa !13
  %42 = getelementptr inbounds nuw i8, ptr %0, i64 8
  store ptr @_ZN5boost9unit_test13basic_cstringIKcE4nullE, ptr %42, align 8, !tbaa !15
  br label %43

43:                                               ; preds = %41, %_ZN5boost9unit_test9framework4impl12_GLOBAL__N_111s_frk_stateEv.exit2
  ret void
}